target datalayout = "e-m:e-p270:32:32-p271:32:32-p272:64:64-i64:64-i128:128-f80:128-n8:16:32:64-S128"
target triple = "x86_64-pc-linux-gnu"

%struct.AVCodecContext = type { ptr, i32, i32, ptr, i32, i32, ptr, ptr, ptr, i64, i32, i32, ptr, i32, %struct.AVRational, %struct.AVRational, %struct.AVRational, i32, i32, i32, i32, i32, %struct.AVRational, i32, i32, i32, i32, i32, i32, i32, i32, i32, i32, i32, ptr, ptr, i32, float, float, float, float, float, float, float, float, float, i32, i32, i32, i32, i32, i32, i32, i32, i32, i32, i32, i32, ptr, ptr, ptr, i32, i32, i32, i32, i32, i32, i32, i32, i32, i32, %struct.AVChannelLayout, i32, i32, i32, i32, i32, i32, i32, i32, ptr, i32, i32, i32, float, float, i32, i32, i32, i32, i32, ptr, i64, i64, float, float, i32, i32, ptr, ptr, i32, i32, i32, i32, i32, ptr, ptr, ptr, ptr, i32, i32, [8 x i64], i32, i32, i32, i32, i32, i32, i32, ptr, ptr, i32, i32, i32, i32, i32, i32, i32, i32, i32, i32, ptr, ptr, i32, i32, ptr, ptr, ptr, ptr, i32, i32, i64, i32, i32, i64, ptr, i64, ptr, i32, ptr, i32 }
%struct.AVRational = type { i32, i32 }
%struct.AVChannelLayout = type { i32, i32, %union.anon, ptr }
%union.anon = type { i64 }
%struct.AVCodecInternal = type { i32, i32, i32, ptr, ptr, ptr, ptr, ptr, ptr, ptr, i32, ptr, ptr, ptr, i32, i32, ptr, i32, ptr, ptr, i32, i32 }
%struct.ThreadContext = type { ptr, %union.pthread_mutex_t, %union.pthread_cond_t, i32, i32, [66 x %struct.Task], %union.pthread_mutex_t, %union.pthread_cond_t, i32, i32, i32, [64 x i64], i32 }
%struct.Task = type { ptr, ptr, i32, i32, i32 }
%union.pthread_mutex_t = type { %struct.__pthread_mutex_s }
%struct.__pthread_mutex_s = type { i32, i32, i32, i32, i32, i16, i16, %struct.__pthread_internal_list }
%struct.__pthread_internal_list = type { ptr, ptr }
%union.pthread_cond_t = type { %struct.__pthread_cond_s }
%struct.__pthread_cond_s = type { %union.__atomic_wide_counter, %union.__atomic_wide_counter, [2 x i32], [2 x i32], i32, i32, [2 x i32] }
%union.__atomic_wide_counter = type { i64 }

@thread_ctx_offsets = internal constant [7 x i32] [i32 96, i32 8, i32 2216, i32 0, i32 48, i32 2256, i32 0], align 16

; Function Attrs: cold nounwind optsize uwtable
define void @ff_frame_thread_encoder_free(ptr noundef %0) #0 {
  %2 = alloca ptr, align 8
  %3 = alloca ptr, align 8
  %4 = alloca i32, align 4
  %5 = alloca i32, align 4
  %6 = alloca i32, align 4
  store ptr %0, ptr %2, align 8, !tbaa !4
  call void @llvm.lifetime.start.p0(i64 8, ptr %3) #6
  %7 = load ptr, ptr %2, align 8, !tbaa !4
  %8 = getelementptr inbounds nuw %struct.AVCodecContext, ptr %7, i32 0, i32 7
  %9 = load ptr, ptr %8, align 8, !tbaa !43
  %10 = getelementptr inbounds nuw %struct.AVCodecInternal, ptr %9, i32 0, i32 11
  %11 = load ptr, ptr %10, align 8, !tbaa !44
  store ptr %11, ptr %3, align 8, !tbaa !51
  %12 = load ptr, ptr %2, align 8, !tbaa !4
  %13 = getelementptr inbounds nuw %struct.AVCodecContext, ptr %12, i32 0, i32 116
  %14 = load i32, ptr %13, align 8, !tbaa !38
  %15 = icmp sgt i32 %14, 0
  br i1 %15, label %16, label %48

16:                                               ; preds = %1
  %17 = load ptr, ptr %3, align 8, !tbaa !51
  %18 = getelementptr inbounds nuw %struct.ThreadContext, ptr %17, i32 0, i32 1
  %19 = call i32 @pthread_mutex_lock(ptr noundef %18) #6
  %20 = load ptr, ptr %3, align 8, !tbaa !51
  %21 = getelementptr inbounds nuw %struct.ThreadContext, ptr %20, i32 0, i32 12
  store i32 1, ptr %4, align 4, !tbaa !9
  %22 = load i32, ptr %4, align 4
  store atomic i32 %22, ptr %21 seq_cst, align 8
  %23 = load ptr, ptr %3, align 8, !tbaa !51
  %24 = getelementptr inbounds nuw %struct.ThreadContext, ptr %23, i32 0, i32 2
  %25 = call i32 @pthread_cond_broadcast(ptr noundef %24) #6
  %26 = load ptr, ptr %3, align 8, !tbaa !51
  %27 = getelementptr inbounds nuw %struct.ThreadContext, ptr %26, i32 0, i32 1
  %28 = call i32 @pthread_mutex_unlock(ptr noundef %27) #6
  call void @llvm.lifetime.start.p0(i64 4, ptr %5) #6
  store i32 0, ptr %5, align 4, !tbaa !9
  br label %29

29:                                               ; preds = %44, %16
  %30 = load i32, ptr %5, align 4, !tbaa !9
  %31 = load ptr, ptr %2, align 8, !tbaa !4
  %32 = getelementptr inbounds nuw %struct.AVCodecContext, ptr %31, i32 0, i32 116
  %33 = load i32, ptr %32, align 8, !tbaa !38
  %34 = icmp slt i32 %30, %33
  br i1 %34, label %36, label %35

35:                                               ; preds = %29
  call void @llvm.lifetime.end.p0(i64 4, ptr %5) #6
  br label %47

36:                                               ; preds = %29
  %37 = load ptr, ptr %3, align 8, !tbaa !51
  %38 = getelementptr inbounds nuw %struct.ThreadContext, ptr %37, i32 0, i32 11
  %39 = load i32, ptr %5, align 4, !tbaa !9
  %40 = sext i32 %39 to i64
  %41 = getelementptr inbounds [64 x i64], ptr %38, i64 0, i64 %40
  %42 = load i64, ptr %41, align 8, !tbaa !42
  %43 = call i32 @pthread_join(i64 noundef %42, ptr noundef null)
  br label %44

44:                                               ; preds = %36
  %45 = load i32, ptr %5, align 4, !tbaa !9
  %46 = add nsw i32 %45, 1
  store i32 %46, ptr %5, align 4, !tbaa !9
  br label %29, !llvm.loop !80

47:                                               ; preds = %35
  br label %48

48:                                               ; preds = %47, %1
  call void @llvm.lifetime.start.p0(i64 4, ptr %6) #6
  store i32 0, ptr %6, align 4, !tbaa !9
  br label %49

49:                                               ; preds = %69, %48
  %50 = load i32, ptr %6, align 4, !tbaa !9
  %51 = load ptr, ptr %3, align 8, !tbaa !51
  %52 = getelementptr inbounds nuw %struct.ThreadContext, ptr %51, i32 0, i32 4
  %53 = load i32, ptr %52, align 4, !tbaa !55
  %54 = icmp ult i32 %50, %53
  br i1 %54, label %56, label %55

55:                                               ; preds = %49
  call void @llvm.lifetime.end.p0(i64 4, ptr %6) #6
  br label %72

56:                                               ; preds = %49
  %57 = load ptr, ptr %3, align 8, !tbaa !51
  %58 = getelementptr inbounds nuw %struct.ThreadContext, ptr %57, i32 0, i32 5
  %59 = load i32, ptr %6, align 4, !tbaa !9
  %60 = zext i32 %59 to i64
  %61 = getelementptr inbounds nuw [66 x %struct.Task], ptr %58, i64 0, i64 %60
  %62 = getelementptr inbounds nuw %struct.Task, ptr %61, i32 0, i32 0
  call void @av_frame_free(ptr noundef %62)
  %63 = load ptr, ptr %3, align 8, !tbaa !51
  %64 = getelementptr inbounds nuw %struct.ThreadContext, ptr %63, i32 0, i32 5
  %65 = load i32, ptr %6, align 4, !tbaa !9
  %66 = zext i32 %65 to i64
  %67 = getelementptr inbounds nuw [66 x %struct.Task], ptr %64, i64 0, i64 %66
  %68 = getelementptr inbounds nuw %struct.Task, ptr %67, i32 0, i32 1
  call void @av_packet_free(ptr noundef %68)
  br label %69

69:                                               ; preds = %56
  %70 = load i32, ptr %6, align 4, !tbaa !9
  %71 = add i32 %70, 1
  store i32 %71, ptr %6, align 4, !tbaa !9
  br label %49, !llvm.loop !81

72:                                               ; preds = %55
  %73 = load ptr, ptr %3, align 8, !tbaa !51
  call void @ff_pthread_free(ptr noundef %73, ptr noundef @thread_ctx_offsets)
  %74 = load ptr, ptr %2, align 8, !tbaa !4
  %75 = getelementptr inbounds nuw %struct.AVCodecContext, ptr %74, i32 0, i32 7
  %76 = load ptr, ptr %75, align 8, !tbaa !43
  %77 = getelementptr inbounds nuw %struct.AVCodecInternal, ptr %76, i32 0, i32 11
  call void @av_freep(ptr noundef %77)
  call void @llvm.lifetime.end.p0(i64 8, ptr %3) #6
  ret void
}