; Function Attrs: cold nounwind optsize uwtable
define void @ff_frame_thread_encoder_free(ptr noundef readonly captures(none) %0) local_unnamed_addr #0 {
  %2 = getelementptr inbounds nuw i8, ptr %0, i64 40
  %3 = load ptr, ptr %2, align 8, !tbaa !41
  %4 = getelementptr inbounds nuw i8, ptr %3, i64 80
  %5 = load ptr, ptr %4, align 8, !tbaa !42
  %6 = getelementptr inbounds nuw i8, ptr %0, i64 656
  %7 = load i32, ptr %6, align 8, !tbaa !37
  %8 = icmp sgt i32 %7, 0
  br i1 %8, label %9, label %.loopexit

9:                                                ; preds = %1
  %10 = getelementptr inbounds nuw i8, ptr %5, i64 8
  %11 = tail call i32 @pthread_mutex_lock(ptr noundef nonnull %10) #7
  %12 = getelementptr inbounds nuw i8, ptr %5, i64 2832
  store atomic i32 1, ptr %12 seq_cst, align 8
  %13 = getelementptr inbounds nuw i8, ptr %5, i64 48
  %14 = tail call i32 @pthread_cond_broadcast(ptr noundef nonnull %13) #7
  %15 = tail call i32 @pthread_mutex_unlock(ptr noundef nonnull %10) #7
  %16 = load i32, ptr %6, align 8, !tbaa !37
  %17 = icmp sgt i32 %16, 0
  br i1 %17, label %.lr.ph, label %.loopexit

.lr.ph:                                           ; preds = %9
  %18 = getelementptr inbounds nuw i8, ptr %5, i64 2320
  br label %19

19:                                               ; preds = %.lr.ph, %19
  %indvars.iv = phi i64 [ 0, %.lr.ph ], [ %indvars.iv.next, %19 ]
  %20 = getelementptr inbounds nuw [64 x i64], ptr %18, i64 0, i64 %indvars.iv
  %21 = load i64, ptr %20, align 8, !tbaa !74
  %22 = tail call i32 @pthread_join(i64 noundef %21, ptr noundef null) #7
  %indvars.iv.next = add nuw nsw i64 %indvars.iv, 1
  %23 = load i32, ptr %6, align 8, !tbaa !37
  %24 = sext i32 %23 to i64
  %25 = icmp slt i64 %indvars.iv.next, %24
  br i1 %25, label %19, label %.loopexit, !llvm.loop !75

.loopexit:                                        ; preds = %19, %9, %1
  %26 = getelementptr inbounds nuw i8, ptr %5, i64 100
  %27 = load i32, ptr %26, align 4, !tbaa !52
  %.not = icmp eq i32 %27, 0
  br i1 %.not, label %._crit_edge, label %.lr.ph23

.lr.ph23:                                         ; preds = %.loopexit
  %28 = getelementptr inbounds nuw i8, ptr %5, i64 104
  br label %31

._crit_edge:                                      ; preds = %31, %.loopexit
  tail call void @ff_pthread_free(ptr noundef nonnull %5, ptr noundef nonnull @thread_ctx_offsets) #7
  %29 = load ptr, ptr %2, align 8, !tbaa !41
  %30 = getelementptr inbounds nuw i8, ptr %29, i64 80
  tail call void @av_freep(ptr noundef nonnull %30) #7
  ret void

31:                                               ; preds = %.lr.ph23, %31
  %indvars.iv25 = phi i64 [ 0, %.lr.ph23 ], [ %indvars.iv.next26, %31 ]
  %32 = getelementptr inbounds nuw [66 x %struct.Task], ptr %28, i64 0, i64 %indvars.iv25
  tail call void @av_frame_free(ptr noundef nonnull %32) #7
  %33 = getelementptr inbounds nuw i8, ptr %32, i64 8
  tail call void @av_packet_free(ptr noundef nonnull %33) #7
  %indvars.iv.next26 = add nuw nsw i64 %indvars.iv25, 1
  %34 = load i32, ptr %26, align 4, !tbaa !52
  %35 = zext i32 %34 to i64
  %36 = icmp samesign ult i64 %indvars.iv.next26, %35
  br i1 %36, label %31, label %._crit_edge, !llvm.loop !76
}